; Function Attrs: nounwind uwtable
define dso_local ptr @data_dict_find_first(ptr noundef readonly captures(address_is_null) %0, ptr noundef readonly captures(none) %1, ptr noundef %2) local_unnamed_addr #0 {
  %.not = icmp eq ptr %0, null
  br i1 %.not, label %.critedge, label %4

4:                                                ; preds = %3
  %5 = getelementptr inbounds nuw i8, ptr %0, i64 4
  %6 = load i32, ptr %5, align 4
  %.not18 = icmp eq i32 %6, 65283
  br i1 %.not18, label %7, label %.critedge

7:                                                ; preds = %4
  %8 = getelementptr inbounds nuw i8, ptr %0, i64 8
  %9 = load ptr, ptr %8, align 8
  %10 = getelementptr inbounds nuw i8, ptr %9, i64 8
  %11 = load i64, ptr %10, align 8
  %.not19 = icmp eq i64 %11, 0
  br i1 %.not19, label %.critedge, label %12

12:                                               ; preds = %7
  %13 = getelementptr inbounds nuw i8, ptr %9, i64 16
  %.021 = load ptr, ptr %13, align 8
  %.not2022 = icmp eq ptr %.021, null
  br i1 %.not2022, label %.critedge, label %.lr.ph

.lr.ph:                                           ; preds = %12, %19
  %.023 = phi ptr [ %.0, %19 ], [ %.021, %12 ]
  %14 = getelementptr inbounds nuw i8, ptr %.023, i64 24
  %15 = load ptr, ptr %14, align 8
  %16 = getelementptr inbounds nuw i8, ptr %.023, i64 16
  %17 = load ptr, ptr %16, align 8
  %18 = tail call zeroext i1 %1(ptr noundef %15, ptr noundef %17, ptr noundef %2) #16
  br i1 %18, label %21, label %19

19:                                               ; preds = %.lr.ph
  %20 = getelementptr inbounds nuw i8, ptr %.023, i64 8
  %.0 = load ptr, ptr %20, align 8
  %.not20 = icmp eq ptr %.0, null
  br i1 %.not20, label %.critedge, label %.lr.ph, !llvm.loop !16

21:                                               ; preds = %.lr.ph
  %22 = getelementptr inbounds nuw i8, ptr %.023, i64 16
  %23 = load ptr, ptr %22, align 8
  br label %.critedge

.critedge:                                        ; preds = %19, %12, %7, %4, %3, %21
  %.016 = phi ptr [ %23, %21 ], [ null, %3 ], [ null, %4 ], [ null, %7 ], [ null, %12 ], [ null, %19 ]
  ret ptr %.016
}